; Function Attrs: null_pointer_is_valid sspstrong uwtable
define hidden void @cf_callback_add(ptr noundef %0, ptr noundef %1) local_unnamed_addr #1 {
  %3 = tail call noalias dereferenceable_or_null(16) ptr @g_malloc(i64 noundef 16) #21
  store ptr %0, ptr %3, align 8
  %4 = getelementptr inbounds nuw i8, ptr %3, i64 8
  store ptr %1, ptr %4, align 8
  %5 = load ptr, ptr @cf_callbacks, align 8
  %6 = tail call ptr @g_list_prepend(ptr noundef %5, ptr noundef %3)
  store ptr %6, ptr @cf_callbacks, align 8
  ret void
}